; Function Attrs: nounwind uwtable
define internal fastcc void @outline_delete(ptr noundef readonly captures(none) %0, ptr noundef %1) unnamed_addr #0 {
  %3 = alloca %struct._lv_event_t, align 8
  %4 = alloca %struct._lv_freetype_outline_event_param_t, align 8
  call void @llvm.lifetime.start.p0(i64 48, ptr nonnull %4) #9
  call void @lv_memset(ptr noundef nonnull %4, i8 noundef zeroext 0, i64 noundef 48) #9
  store ptr %1, ptr %4, align 8, !tbaa !67
  %5 = getelementptr inbounds nuw i8, ptr %0, i64 32
  %6 = load ptr, ptr %5, align 8, !tbaa !59
  %.not.i = icmp eq ptr %6, null
  br i1 %.not.i, label %outline_send_event.exit, label %7

7:                                                ; preds = %2
  call void @llvm.lifetime.start.p0(i64 56, ptr nonnull %3) #9
  call void @lv_memset(ptr noundef nonnull %3, i8 noundef zeroext 0, i64 noundef 56) #9
  %8 = getelementptr inbounds nuw i8, ptr %3, i64 16
  store i32 41, ptr %8, align 8, !tbaa !62
  %9 = getelementptr inbounds nuw i8, ptr %3, i64 32
  store ptr %4, ptr %9, align 8, !tbaa !65
  %10 = getelementptr inbounds nuw i8, ptr %3, i64 24
  store ptr null, ptr %10, align 8, !tbaa !66
  %11 = load ptr, ptr %5, align 8, !tbaa !59
  call void %11(ptr noundef nonnull %3) #9
  call void @llvm.lifetime.end.p0(i64 56, ptr nonnull %3) #9
  br label %outline_send_event.exit

outline_send_event.exit:                          ; preds = %2, %7
  call void @llvm.lifetime.end.p0(i64 48, ptr nonnull %4) #9
  ret void
}